target datalayout = "e-m:e-p270:32:32-p271:32:32-p272:64:64-i64:64-i128:128-f80:128-n8:16:32:64-S128"
target triple = "x86_64-pc-linux-gnu"

%struct.ggml_backend_buffer_i = type { ptr, ptr, ptr, ptr, ptr, ptr, ptr, ptr, ptr }
%struct.ggml_backend_buffer = type { %struct.ggml_backend_buffer_i, ptr, ptr, i64, i32 }
%struct.ggml_backend_multi_buffer_context = type { ptr, i64 }

; Function Attrs: mustprogress uwtable
define void @ggml_backend_buffer_free(ptr noundef %0) #0 {
  %2 = alloca ptr, align 8
  store ptr %0, ptr %2, align 8, !tbaa !24
  %3 = load ptr, ptr %2, align 8, !tbaa !24
  %4 = icmp eq ptr %3, null
  br i1 %4, label %5, label %6

5:                                                ; preds = %1
  br label %22

6:                                                ; preds = %1
  %7 = load ptr, ptr %2, align 8, !tbaa !24
  %8 = getelementptr inbounds nuw %struct.ggml_backend_buffer, ptr %7, i32 0, i32 0
  %9 = getelementptr inbounds nuw %struct.ggml_backend_buffer_i, ptr %8, i32 0, i32 0
  %10 = load ptr, ptr %9, align 8, !tbaa !33
  %11 = icmp ne ptr %10, null
  br i1 %11, label %12, label %18

12:                                               ; preds = %6
  %13 = load ptr, ptr %2, align 8, !tbaa !24
  %14 = getelementptr inbounds nuw %struct.ggml_backend_buffer, ptr %13, i32 0, i32 0
  %15 = getelementptr inbounds nuw %struct.ggml_backend_buffer_i, ptr %14, i32 0, i32 0
  %16 = load ptr, ptr %15, align 8, !tbaa !33
  %17 = load ptr, ptr %2, align 8, !tbaa !24
  call void %16(ptr noundef %17)
  br label %18

18:                                               ; preds = %12, %6
  %19 = load ptr, ptr %2, align 8, !tbaa !24
  %20 = icmp eq ptr %19, null
  br i1 %20, label %22, label %21

21:                                               ; preds = %18
  call void @_ZdlPvm(ptr noundef %19, i64 noundef 104) #17
  br label %22

22:                                               ; preds = %5, %21, %18
  ret void
}

; Function Attrs: mustprogress uwtable
define internal void @_ZL37ggml_backend_multi_buffer_free_bufferP19ggml_backend_buffer(ptr noundef %0) #0 {
  %2 = alloca ptr, align 8
  %3 = alloca ptr, align 8
  %4 = alloca i64, align 8
  store ptr %0, ptr %2, align 8, !tbaa !24
  call void @llvm.lifetime.start.p0(i64 8, ptr %3) #15
  %5 = load ptr, ptr %2, align 8, !tbaa !24
  %6 = getelementptr inbounds nuw %struct.ggml_backend_buffer, ptr %5, i32 0, i32 2
  %7 = load ptr, ptr %6, align 8, !tbaa !21
  store ptr %7, ptr %3, align 8, !tbaa !39
  call void @llvm.lifetime.start.p0(i64 8, ptr %4) #15
  store i64 0, ptr %4, align 8, !tbaa !12
  br label %8

8:                                                ; preds = %22, %1
  %9 = load i64, ptr %4, align 8, !tbaa !12
  %10 = load ptr, ptr %3, align 8, !tbaa !39
  %11 = getelementptr inbounds nuw %struct.ggml_backend_multi_buffer_context, ptr %10, i32 0, i32 1
  %12 = load i64, ptr %11, align 8, !tbaa !41
  %13 = icmp ult i64 %9, %12
  br i1 %13, label %15, label %14

14:                                               ; preds = %8
  call void @llvm.lifetime.end.p0(i64 8, ptr %4) #15
  br label %25

15:                                               ; preds = %8
  %16 = load ptr, ptr %3, align 8, !tbaa !39
  %17 = getelementptr inbounds nuw %struct.ggml_backend_multi_buffer_context, ptr %16, i32 0, i32 0
  %18 = load ptr, ptr %17, align 8, !tbaa !45
  %19 = load i64, ptr %4, align 8, !tbaa !12
  %20 = getelementptr inbounds nuw ptr, ptr %18, i64 %19
  %21 = load ptr, ptr %20, align 8, !tbaa !24
  call void @ggml_backend_buffer_free(ptr noundef %21)
  br label %22

22:                                               ; preds = %15
  %23 = load i64, ptr %4, align 8, !tbaa !12
  %24 = add i64 %23, 1
  store i64 %24, ptr %4, align 8, !tbaa !12
  br label %8, !llvm.loop !124

25:                                               ; preds = %14
  %26 = load ptr, ptr %3, align 8, !tbaa !39
  %27 = getelementptr inbounds nuw %struct.ggml_backend_multi_buffer_context, ptr %26, i32 0, i32 0
  %28 = load ptr, ptr %27, align 8, !tbaa !45
  call void @free(ptr noundef %28) #15
  %29 = load ptr, ptr %3, align 8, !tbaa !39
  call void @free(ptr noundef %29) #15
  call void @llvm.lifetime.end.p0(i64 8, ptr %3) #15
  ret void
}