; Function Attrs: mustprogress uwtable
define internal void @_ZL37ggml_backend_multi_buffer_free_bufferP19ggml_backend_buffer(ptr noundef readonly captures(none) %0) #0 {
  %2 = getelementptr inbounds nuw i8, ptr %0, i64 80
  %3 = load ptr, ptr %2, align 8, !tbaa !19
  %4 = getelementptr inbounds nuw i8, ptr %3, i64 8
  %5 = load i64, ptr %4, align 8, !tbaa !31
  %.not = icmp eq i64 %5, 0
  br i1 %.not, label %._crit_edge, label %.lr.ph

._crit_edge:                                      ; preds = %ggml_backend_buffer_free.exit, %1
  %6 = load ptr, ptr %3, align 8, !tbaa !35
  tail call void @free(ptr noundef %6) #26
  tail call void @free(ptr noundef nonnull %3) #26
  ret void

.lr.ph:                                           ; preds = %1, %ggml_backend_buffer_free.exit
  %7 = phi i64 [ %16, %ggml_backend_buffer_free.exit ], [ %5, %1 ]
  %.07 = phi i64 [ %17, %ggml_backend_buffer_free.exit ], [ 0, %1 ]
  %8 = load ptr, ptr %3, align 8, !tbaa !35
  %9 = getelementptr inbounds nuw ptr, ptr %8, i64 %.07
  %10 = load ptr, ptr %9, align 8, !tbaa !36
  %11 = icmp eq ptr %10, null
  br i1 %11, label %ggml_backend_buffer_free.exit, label %12

12:                                               ; preds = %.lr.ph
  %13 = load ptr, ptr %10, align 8, !tbaa !27
  %.not.i = icmp eq ptr %13, null
  br i1 %.not.i, label %15, label %14

14:                                               ; preds = %12
  tail call void %13(ptr noundef nonnull %10)
  br label %15

15:                                               ; preds = %14, %12
  tail call void @_ZdlPvm(ptr noundef nonnull %10, i64 noundef 104) #23
  %.pre = load i64, ptr %4, align 8, !tbaa !31
  br label %ggml_backend_buffer_free.exit

ggml_backend_buffer_free.exit:                    ; preds = %.lr.ph, %15
  %16 = phi i64 [ %7, %.lr.ph ], [ %.pre, %15 ]
  %17 = add nuw i64 %.07, 1
  %18 = icmp ult i64 %17, %16
  br i1 %18, label %.lr.ph, label %._crit_edge, !llvm.loop !101
}